; Function Attrs: mustprogress nounwind uwtable
define void @_ZN5faiss9NNDescentD2Ev(ptr noundef nonnull readonly align 8 captures(none) dereferenceable(88) %0) unnamed_addr #13 align 2 personality ptr @__gxx_personality_v0 {
  %2 = getelementptr inbounds nuw i8, ptr %0, i64 64
  %3 = load ptr, ptr %2, align 8, !tbaa !22
  %.not.i.i.i = icmp eq ptr %3, null
  br i1 %.not.i.i.i, label %_ZNSt6vectorIiSaIiEED2Ev.exit, label %4

4:                                                ; preds = %1
  %5 = getelementptr inbounds nuw i8, ptr %0, i64 80
  %6 = load ptr, ptr %5, align 8, !tbaa !24
  %7 = ptrtoint ptr %6 to i64
  %8 = ptrtoint ptr %3 to i64
  %9 = sub i64 %7, %8
  tail call void @_ZdlPvm(ptr noundef nonnull %3, i64 noundef %9) #26
  br label %_ZNSt6vectorIiSaIiEED2Ev.exit

_ZNSt6vectorIiSaIiEED2Ev.exit:                    ; preds = %1, %4
  %10 = getelementptr inbounds nuw i8, ptr %0, i64 40
  %11 = load ptr, ptr %10, align 8, !tbaa !82
  %12 = getelementptr inbounds nuw i8, ptr %0, i64 48
  %13 = load ptr, ptr %12, align 8, !tbaa !83
  invoke void @_ZNSt12_Destroy_auxILb0EE9__destroyIPN5faiss9nndescent5NhoodEEEvT_S6_(ptr noundef %11, ptr noundef %13)
          to label %_ZSt8_DestroyIPN5faiss9nndescent5NhoodES2_EvT_S4_RSaIT0_E.exit.i unwind label %21

_ZSt8_DestroyIPN5faiss9nndescent5NhoodES2_EvT_S4_RSaIT0_E.exit.i: ; preds = %_ZNSt6vectorIiSaIiEED2Ev.exit
  %14 = load ptr, ptr %10, align 8, !tbaa !82
  %.not.i.i.i1 = icmp eq ptr %14, null
  br i1 %.not.i.i.i1, label %_ZNSt6vectorIN5faiss9nndescent5NhoodESaIS2_EED2Ev.exit, label %15

15:                                               ; preds = %_ZSt8_DestroyIPN5faiss9nndescent5NhoodES2_EvT_S4_RSaIT0_E.exit.i
  %16 = getelementptr inbounds nuw i8, ptr %0, i64 56
  %17 = load ptr, ptr %16, align 8, !tbaa !84
  %18 = ptrtoint ptr %17 to i64
  %19 = ptrtoint ptr %14 to i64
  %20 = sub i64 %18, %19
  tail call void @_ZdlPvm(ptr noundef nonnull %14, i64 noundef %20) #26
  br label %_ZNSt6vectorIN5faiss9nndescent5NhoodESaIS2_EED2Ev.exit

21:                                               ; preds = %_ZNSt6vectorIiSaIiEED2Ev.exit
  %22 = landingpad { ptr, i32 }
          catch ptr null
  %23 = extractvalue { ptr, i32 } %22, 0
  tail call void @__clang_call_terminate(ptr %23) #29
  unreachable

_ZNSt6vectorIN5faiss9nndescent5NhoodESaIS2_EED2Ev.exit: ; preds = %_ZSt8_DestroyIPN5faiss9nndescent5NhoodES2_EvT_S4_RSaIT0_E.exit.i, %15
  ret void
}